; Function Attrs: nounwind sspstrong uwtable
define internal i64 @ossl_call_client_cert_cb(i64 noundef %0) #0 {
  %2 = alloca i64, align 8
  store i64 %0, ptr %2, align 8, !tbaa !10
  %3 = load i64, ptr @id_i_context, align 8, !tbaa !10
  %4 = tail call i64 @rb_attr_get(i64 noundef %0, i64 noundef %3) #9
  %5 = load i64, ptr @id_i_client_cert_cb, align 8, !tbaa !10
  %6 = tail call i64 @rb_attr_get(i64 noundef %4, i64 noundef %5) #9
  %7 = icmp eq i64 %6, 4
  br i1 %7, label %25, label %8

8:                                                ; preds = %1
  %9 = load i64, ptr @id_call, align 8, !tbaa !10
  %10 = call i64 @rb_funcallv(i64 noundef %6, i64 noundef %9, i32 noundef 1, ptr noundef nonnull %2) #9
  %11 = icmp eq i64 %10, 0
  %12 = and i64 %10, 7
  %13 = icmp ne i64 %12, 0
  %14 = or i1 %11, %13
  br i1 %14, label %rbimpl_RB_TYPE_P_fastpath.exit.thread.i, label %15, !prof !17

15:                                               ; preds = %8
  %16 = inttoptr i64 %10 to ptr
  %17 = load i64, ptr %16, align 8, !tbaa !18
  %18 = and i64 %17, 31
  %19 = icmp eq i64 %18, 7
  br i1 %19, label %Check_Type.exit, label %rbimpl_RB_TYPE_P_fastpath.exit.thread.i, !prof !42

rbimpl_RB_TYPE_P_fastpath.exit.thread.i:          ; preds = %15, %8
  call void @rb_unexpected_type(i64 noundef %10, i32 noundef 7) #11
  unreachable

Check_Type.exit:                                  ; preds = %15
  %20 = call i64 @rb_ary_entry(i64 noundef %10, i64 noundef 0) #12
  %21 = call ptr @GetX509CertPtr(i64 noundef %20) #9
  %22 = call i64 @rb_ary_entry(i64 noundef %10, i64 noundef 1) #12
  %23 = call ptr @GetPrivPKeyPtr(i64 noundef %22) #9
  %24 = call i64 (i64, ...) @rb_ary_new_from_args(i64 noundef 2, i64 noundef %20, i64 noundef %22) #9
  br label %25

25:                                               ; preds = %1, %Check_Type.exit
  %.0 = phi i64 [ %24, %Check_Type.exit ], [ 4, %1 ]
  ret i64 %.0
}